; Function Attrs: mustprogress nounwind uwtable
define dso_local noundef nonnull align 8 dereferenceable(8) ptr @_ZN4nodelsERSoRKSt6vectorIhSaIhEE(ptr noundef nonnull returned align 8 dereferenceable(8) %output, ptr nocapture noundef nonnull readonly align 8 dereferenceable(24) %vec) local_unnamed_addr #3 {
entry:
  %call = tail call noundef nonnull align 8 dereferenceable(8) ptr @_ZStlsISt11char_traitsIcEERSt13basic_ostreamIcT_ES5_PKc(ptr noundef nonnull align 8 dereferenceable(8) %output, ptr noundef nonnull @.str.3) #23
  %0 = load ptr, ptr %vec, align 8
  %_M_finish.i = getelementptr inbounds i8, ptr %vec, i64 8
  %1 = load ptr, ptr %_M_finish.i, align 8
  %cmp.i.not7 = icmp eq ptr %0, %1
  br i1 %cmp.i.not7, label %for.end, label %for.body

for.body:                                         ; preds = %entry, %for.body
  %__begin1.sroa.0.08 = phi ptr [ %incdec.ptr.i, %for.body ], [ %0, %entry ]
  %2 = load i8, ptr %__begin1.sroa.0.08, align 1
  %call6 = tail call noundef nonnull align 8 dereferenceable(8) ptr @_ZStlsISt11char_traitsIcEERSt13basic_ostreamIcT_ES5_h(ptr noundef nonnull align 8 dereferenceable(8) %output, i8 noundef zeroext %2) #23
  %call7 = tail call noundef nonnull align 8 dereferenceable(8) ptr @_ZStlsISt11char_traitsIcEERSt13basic_ostreamIcT_ES5_PKc(ptr noundef nonnull align 8 dereferenceable(8) %call6, ptr noundef nonnull @.str.5) #23
  %incdec.ptr.i = getelementptr inbounds i8, ptr %__begin1.sroa.0.08, i64 1
  %cmp.i.not = icmp eq ptr %incdec.ptr.i, %1
  br i1 %cmp.i.not, label %for.end, label %for.body

for.end:                                          ; preds = %for.body, %entry
  %call9 = tail call noundef nonnull align 8 dereferenceable(8) ptr @_ZStlsISt11char_traitsIcEERSt13basic_ostreamIcT_ES5_PKc(ptr noundef nonnull align 8 dereferenceable(8) %output, ptr noundef nonnull @.str.6) #23
  ret ptr %output
}